target datalayout = "e-m:e-p270:32:32-p271:32:32-p272:64:64-i64:64-i128:128-f80:128-n8:16:32:64-S128"
target triple = "x86_64-pc-linux-gnu"

%struct.bb_status_resp_msg = type { ptr }

@.str.2 = private unnamed_addr constant [22 x i8] c"slurm_protocol_pack.c\00", align 1
@__func__._unpack_bb_status_resp_msg = private unnamed_addr constant [27 x i8] c"_unpack_bb_status_resp_msg\00", align 1

; Function Attrs: nounwind uwtable
define internal i32 @_unpack_bb_status_resp_msg(ptr noundef %0, ptr noundef %1, i16 noundef zeroext %2) #0 {
  %4 = alloca i32, align 4
  %5 = alloca ptr, align 8
  %6 = alloca ptr, align 8
  %7 = alloca i16, align 2
  %8 = alloca ptr, align 8
  %9 = alloca i32, align 4
  %10 = alloca i32, align 4
  store ptr %0, ptr %5, align 8
  store ptr %1, ptr %6, align 8
  store i16 %2, ptr %7, align 2
  call void @llvm.lifetime.start.p0(i64 8, ptr %8) #6
  %11 = call ptr @slurm_xcalloc(i64 noundef 1, i64 noundef 8, i1 noundef zeroext true, i1 noundef zeroext false, ptr noundef @.str.2, i32 noundef 12349, ptr noundef @__func__._unpack_bb_status_resp_msg)
  store ptr %11, ptr %8, align 8
  %12 = load ptr, ptr %8, align 8
  %13 = load ptr, ptr %5, align 8
  store ptr %12, ptr %13, align 8
  br label %14

14:                                               ; preds = %3
  call void @llvm.lifetime.start.p0(i64 4, ptr %9) #6
  %15 = load ptr, ptr %8, align 8
  %16 = getelementptr inbounds nuw %struct.bb_status_resp_msg, ptr %15, i32 0, i32 0
  %17 = load ptr, ptr %6, align 8
  %18 = call i32 @unpackstr_xmalloc_chooser(ptr noundef %16, ptr noundef %9, ptr noundef %17)
  %19 = icmp ne i32 %18, 0
  br i1 %19, label %20, label %21

20:                                               ; preds = %14
  store i32 4, ptr %10, align 4
  br label %22

21:                                               ; preds = %14
  store i32 0, ptr %10, align 4
  br label %22

22:                                               ; preds = %20, %21
  call void @llvm.lifetime.end.p0(i64 4, ptr %9) #6
  %23 = load i32, ptr %10, align 4
  switch i32 %23, label %30 [
    i32 0, label %24
    i32 4, label %27
  ]

24:                                               ; preds = %22
  br label %25

25:                                               ; preds = %24
  br label %26

26:                                               ; preds = %25
  store i32 0, ptr %4, align 4
  store i32 1, ptr %10, align 4
  br label %30

27:                                               ; preds = %22
  %28 = load ptr, ptr %8, align 8
  call void @slurm_free_bb_status_resp_msg(ptr noundef %28)
  %29 = load ptr, ptr %5, align 8
  store ptr null, ptr %29, align 8
  store i32 -1, ptr %4, align 4
  store i32 1, ptr %10, align 4
  br label %30

30:                                               ; preds = %27, %26, %22
  call void @llvm.lifetime.end.p0(i64 8, ptr %8) #6
  %31 = load i32, ptr %4, align 4
  ret i32 %31
}