; Function Attrs: nounwind uwtable
define internal fastcc range(i32 -1, 1) i32 @_unpack_bb_status_resp_msg(ptr noundef writeonly captures(none) initializes((0, 8)) %0, ptr noundef %1) unnamed_addr #0 {
  %3 = alloca i32, align 4
  %4 = tail call ptr @slurm_xcalloc(i64 noundef 1, i64 noundef 8, i1 noundef zeroext true, i1 noundef zeroext false, ptr noundef nonnull @.str.2, i32 noundef 12349, ptr noundef nonnull @__func__._unpack_bb_status_resp_msg) #7
  store ptr %4, ptr %0, align 8
  call void @llvm.lifetime.start.p0(i64 4, ptr nonnull %3) #7
  %5 = call i32 @unpackstr_xmalloc_chooser(ptr noundef %4, ptr noundef nonnull %3, ptr noundef %1) #7
  %.not = icmp eq i32 %5, 0
  call void @llvm.lifetime.end.p0(i64 4, ptr nonnull %3) #7
  br i1 %.not, label %7, label %6

6:                                                ; preds = %2
  call void @slurm_free_bb_status_resp_msg(ptr noundef %4) #7
  store ptr null, ptr %0, align 8
  br label %7

7:                                                ; preds = %2, %6
  %.07 = phi i32 [ -1, %6 ], [ 0, %2 ]
  ret i32 %.07
}